target datalayout = "e-m:e-p270:32:32-p271:32:32-p272:64:64-i64:64-i128:128-f80:128-n8:16:32:64-S128"
target triple = "x86_64-pc-linux-gnu"

%struct.foreign_metadata_t = type { i32, ptr, i64, i64, i64, i32, i32, i32, i32, i32, i32 }

; Function Attrs: nounwind sspstrong uwtable
define dso_local ptr @flac__foreign_metadata_new(i32 noundef %0) #0 {
  %2 = alloca i32, align 4
  %3 = alloca ptr, align 8
  store i32 %0, ptr %2, align 4, !tbaa !4
  call void @llvm.lifetime.start.p0(i64 8, ptr %3) #13
  %4 = call noalias ptr @calloc(i64 noundef 1, i64 noundef 64) #14
  store ptr %4, ptr %3, align 8, !tbaa !8
  %5 = load ptr, ptr %3, align 8, !tbaa !8
  %6 = icmp ne ptr %5, null
  br i1 %6, label %7, label %13

7:                                                ; preds = %1
  %8 = load i32, ptr %2, align 4, !tbaa !4
  %9 = load ptr, ptr %3, align 8, !tbaa !8
  %10 = getelementptr inbounds nuw %struct.foreign_metadata_t, ptr %9, i32 0, i32 0
  store i32 %8, ptr %10, align 8, !tbaa !10
  %11 = load ptr, ptr %3, align 8, !tbaa !8
  %12 = getelementptr inbounds nuw %struct.foreign_metadata_t, ptr %11, i32 0, i32 5
  store i32 0, ptr %12, align 8, !tbaa !13
  br label %13

13:                                               ; preds = %7, %1
  %14 = load ptr, ptr %3, align 8, !tbaa !8
  call void @llvm.lifetime.end.p0(i64 8, ptr %3) #13
  ret ptr %14
}