; Function Attrs: mustprogress nofree nounwind sspstrong willreturn memory(write, argmem: none, inaccessiblemem: readwrite) uwtable
define dso_local noalias noundef ptr @flac__foreign_metadata_new(i32 noundef %0) local_unnamed_addr #0 {
  %2 = tail call noalias dereferenceable_or_null(64) ptr @calloc(i64 noundef 1, i64 noundef 64) #13
  %.not = icmp eq ptr %2, null
  br i1 %.not, label %4, label %3

3:                                                ; preds = %1
  store i32 %0, ptr %2, align 8, !tbaa !4
  br label %4

4:                                                ; preds = %3, %1
  ret ptr %2
}